target datalayout = "e-m:e-p270:32:32-p271:32:32-p272:64:64-i64:64-i128:128-f80:128-n8:16:32:64-S128"
target triple = "x86_64-unknown-linux-gnu"

module asm ".section\09\22.initcall6.init\22, \22a\22\09\09"
module asm "__initcall__kmod_nf_nat_irc__843_109_nf_nat_irc_init6:\09\09\09"
module asm ".long\09nf_nat_irc_init - .\09"
module asm ".previous\09\09\09\09\09"

%struct.nf_conntrack_nat_helper = type { %struct.list_head, [16 x i8], ptr }
%struct.list_head = type { ptr, ptr }
%struct.kernel_param_ops = type { i32, ptr, ptr, ptr }
%struct.kernel_param = type { ptr, ptr, ptr, i16, i8, i8, %union.anon }
%union.anon = type { ptr }

@__UNIQUE_ID_author835 = internal constant [54 x i8] c"nf_nat_irc.author=Harald Welte <laforge@gnumonks.org>\00", section ".modinfo", align 1
@__UNIQUE_ID_description836 = internal constant [44 x i8] c"nf_nat_irc.description=IRC (DCC) NAT helper\00", section ".modinfo", align 1
@__UNIQUE_ID_file837 = internal constant [41 x i8] c"nf_nat_irc.file=net/netfilter/nf_nat_irc\00", section ".modinfo", align 1
@__UNIQUE_ID_license838 = internal constant [23 x i8] c"nf_nat_irc.license=GPL\00", section ".modinfo", align 1
@__UNIQUE_ID_alias839 = internal constant [28 x i8] c"nf_nat_irc.alias=ip_nat_irc\00", section ".modinfo", align 1
@nat_helper_irc = internal global %struct.nf_conntrack_nat_helper { %struct.list_head zeroinitializer, [16 x i8] c"ip_nat_irc\00\00\00\00\00\00", ptr null }, align 8
@nf_nat_irc_hook = external dso_local global ptr, align 8
@__param_str_ports = internal constant [17 x i8] c"nf_nat_irc.ports\00", align 16
@__param_ops_ports = internal constant %struct.kernel_param_ops { i32 0, ptr @warn_set, ptr null, ptr null }, align 8
@__param_ports = internal constant %struct.kernel_param { ptr @__param_str_ports, ptr null, ptr @__param_ops_ports, i16 0, i8 -1, i8 0, %union.anon zeroinitializer }, section "__param", align 8
@__UNIQUE_ID___addressable_nf_nat_irc_init844 = internal global ptr @nf_nat_irc_init, section ".discard.addressable", align 8
@__exitcall_nf_nat_irc_fini = internal global ptr @nf_nat_irc_fini, section ".exitcall.exit", align 8
@.str = private unnamed_addr constant [72 x i8] c"\016nf_nat_irc: kernel >= 2.6.10 only uses 'ports' for conntrack modules\0A\00", align 1
@.str.1 = private unnamed_addr constant [27 x i8] c"net/netfilter/nf_nat_irc.c\00", align 1
@.str.2 = private unnamed_addr constant [17 x i8] c"all ports in use\00", align 1
@.str.3 = private unnamed_addr constant [6 x i8] c"%u %u\00", align 1
@.str.4 = private unnamed_addr constant [21 x i8] c"cannot mangle packet\00", align 1
@llvm.compiler.used = appending global [9 x ptr] [ptr @__UNIQUE_ID___addressable_nf_nat_irc_init844, ptr @__UNIQUE_ID_alias839, ptr @__UNIQUE_ID_author835, ptr @__UNIQUE_ID_description836, ptr @__UNIQUE_ID_file837, ptr @__UNIQUE_ID_license838, ptr @__exitcall_nf_nat_irc_fini, ptr @__param_ports, ptr @nf_nat_irc_fini], section "llvm.metadata"

; Function Attrs: cold fn_ret_thunk_extern nounwind null_pointer_is_valid optsize
define internal void @nf_nat_irc_fini() #0 section ".exit.text" align 16 {
  tail call void @nf_nat_helper_unregister(ptr noundef nonnull @nat_helper_irc) #9
  store volatile ptr null, ptr @nf_nat_irc_hook, align 8
  tail call void @synchronize_rcu() #9
  ret void
}

; Function Attrs: null_pointer_is_valid
declare dso_local void @nf_nat_helper_unregister(ptr noundef) local_unnamed_addr #1

; Function Attrs: null_pointer_is_valid
declare dso_local void @synchronize_rcu() local_unnamed_addr #1

; Function Attrs: cold fn_ret_thunk_extern nounwind null_pointer_is_valid optsize
define internal noundef i32 @nf_nat_irc_init() #0 section ".init.text" align 16 {
  %1 = load ptr, ptr @nf_nat_irc_hook, align 8
  %2 = icmp eq ptr %1, null
  br i1 %2, label %4, label %3, !prof !5

3:                                                ; preds = %0
  tail call void asm sideeffect "841: nop\0A\09.pushsection .discard.instr_begin\0A\09.long 841b - .\0A\09.popsection\0A\09", "i,~{dirflag},~{fpsr},~{flags}"(i32 841) #9, !srcloc !6
  tail call void asm sideeffect "1:\09.byte 0x0f, 0x0b\0A.pushsection __bug_table,\22aw\22\0A2:\09.long 1b - .\09# bug_entry::bug_addr\0A\09.long ${0:c} - .\09# bug_entry::file\0A\09.word ${1:c}\09# bug_entry::line\0A\09.word ${2:c}\09# bug_entry::flags\0A\09.org 2b+${3:c}\0A.popsection\0A", "i,i,i,i,~{dirflag},~{fpsr},~{flags}"(ptr nonnull @.str.1, i32 95, i32 0, i64 12) #9, !srcloc !7
  unreachable

4:                                                ; preds = %0
  tail call void @nf_nat_helper_register(ptr noundef nonnull @nat_helper_irc) #9
  store volatile ptr @help, ptr @nf_nat_irc_hook, align 8
  ret i32 0
}

; Function Attrs: fn_ret_thunk_extern nounwind null_pointer_is_valid
define internal noundef i32 @warn_set(ptr nocapture readnone %0, ptr nocapture readnone %1) #2 align 16 {
  %3 = tail call i32 (ptr, ...) @_printk(ptr noundef nonnull @.str) #10
  ret i32 0
}

; Function Attrs: cold null_pointer_is_valid
declare dso_local i32 @_printk(ptr noundef, ...) local_unnamed_addr #3

; Function Attrs: null_pointer_is_valid
declare dso_local void @nf_nat_helper_register(ptr noundef) local_unnamed_addr #1

; Function Attrs: fn_ret_thunk_extern nounwind null_pointer_is_valid
define internal noundef i32 @help(ptr noundef %0, i32 noundef %1, i32 noundef %2, i32 noundef %3, i32 noundef %4, ptr noundef %5) #2 align 16 {
  %7 = alloca [17 x i8], align 16
  call void @llvm.lifetime.start.p0(i64 17, ptr nonnull %7) #9
  call void @llvm.memset.p0.i64(ptr noundef nonnull align 16 dereferenceable(17) %7, i8 0, i64 17, i1 false), !annotation !8
  %8 = getelementptr inbounds i8, ptr %5, i64 120
  %9 = load ptr, ptr %8, align 8
  %10 = getelementptr i8, ptr %9, i64 108
  %11 = load i32, ptr %10, align 4
  %12 = getelementptr inbounds i8, ptr %5, i64 68
  %13 = load i16, ptr %12, align 4
  %14 = getelementptr inbounds i8, ptr %5, i64 184
  store i16 %13, ptr %14, align 8
  %15 = getelementptr inbounds i8, ptr %5, i64 188
  store i32 1, ptr %15, align 4
  %16 = getelementptr inbounds i8, ptr %5, i64 104
  store ptr @nf_nat_follow_master, ptr %16, align 8
  %17 = tail call i16 @llvm.bswap.i16(i16 %13)
  %18 = tail call zeroext i16 @nf_nat_exp_find_port(ptr noundef %5, i16 noundef zeroext %17) #9
  %19 = icmp eq i16 %18, 0
  br i1 %19, label %20, label %21

20:                                               ; preds = %6
  tail call void (ptr, ptr, ptr, ...) @nf_ct_helper_log(ptr noundef %0, ptr noundef %9, ptr noundef nonnull @.str.2) #9
  br label %29

21:                                               ; preds = %6
  %22 = zext i16 %18 to i32
  %23 = tail call i32 @llvm.bswap.i32(i32 %11)
  %24 = call i32 (ptr, i64, ptr, ...) @snprintf(ptr noundef nonnull dereferenceable(1) %7, i64 noundef 17, ptr noundef nonnull @.str.3, i32 noundef %23, i32 noundef %22) #9
  %25 = call i64 @strlen(ptr noundef nonnull dereferenceable(1) %7) #9
  %26 = trunc i64 %25 to i32
  %27 = call zeroext i1 @__nf_nat_mangle_tcp_packet(ptr noundef %0, ptr noundef %9, i32 noundef %1, i32 noundef %2, i32 noundef %3, i32 noundef %4, ptr noundef nonnull %7, i32 noundef %26, i1 noundef zeroext true) #9
  br i1 %27, label %29, label %28

28:                                               ; preds = %21
  call void (ptr, ptr, ptr, ...) @nf_ct_helper_log(ptr noundef %0, ptr noundef %9, ptr noundef nonnull @.str.4) #9
  call void @nf_ct_unexpect_related(ptr noundef %5) #9
  br label %29

29:                                               ; preds = %28, %21, %20
  %30 = phi i32 [ 0, %20 ], [ 0, %28 ], [ 1, %21 ]
  call void @llvm.lifetime.end.p0(i64 17, ptr nonnull %7) #9
  ret i32 %30
}

; Function Attrs: nocallback nofree nosync nounwind willreturn memory(argmem: readwrite)
declare void @llvm.lifetime.start.p0(i64 immarg, ptr nocapture) #4

; Function Attrs: nocallback nofree nounwind willreturn memory(argmem: write)
declare void @llvm.memset.p0.i64(ptr nocapture writeonly, i8, i64, i1 immarg) #5

; Function Attrs: null_pointer_is_valid
declare dso_local void @nf_nat_follow_master(ptr noundef, ptr noundef) #1

; Function Attrs: null_pointer_is_valid
declare dso_local zeroext i16 @nf_nat_exp_find_port(ptr noundef, i16 noundef zeroext) local_unnamed_addr #1

; Function Attrs: nocallback nofree nosync nounwind speculatable willreturn memory(none)
declare i16 @llvm.bswap.i16(i16) #6

; Function Attrs: null_pointer_is_valid
declare dso_local void @nf_ct_helper_log(ptr noundef, ptr noundef, ptr noundef, ...) local_unnamed_addr #1

; Function Attrs: nofree nounwind null_pointer_is_valid
declare dso_local noundef i32 @snprintf(ptr noalias nocapture noundef writeonly, i64 noundef, ptr nocapture noundef readonly, ...) local_unnamed_addr #7

; Function Attrs: nocallback nofree nosync nounwind speculatable willreturn memory(none)
declare i32 @llvm.bswap.i32(i32) #6

; Function Attrs: mustprogress nofree nounwind null_pointer_is_valid willreturn memory(argmem: read)
declare dso_local i64 @strlen(ptr nocapture noundef) local_unnamed_addr #8

; Function Attrs: null_pointer_is_valid
declare dso_local void @nf_ct_unexpect_related(ptr noundef) local_unnamed_addr #1

; Function Attrs: nocallback nofree nosync nounwind willreturn memory(argmem: readwrite)
declare void @llvm.lifetime.end.p0(i64 immarg, ptr nocapture) #4

; Function Attrs: null_pointer_is_valid
declare dso_local zeroext i1 @__nf_nat_mangle_tcp_packet(ptr noundef, ptr noundef, i32 noundef, i32 noundef, i32 noundef, i32 noundef, ptr noundef, i32 noundef, i1 noundef zeroext) local_unnamed_addr #1


!llvm.module.flags = !{!0, !1, !2, !3, !4}

!0 = !{i32 1, !"wchar_size", i32 2}
!1 = !{i32 8, !"cf-protection-branch", i32 1}
!2 = !{i32 4, !"function_return_thunk_extern", i32 1}
!3 = !{i32 4, !"indirect_branch_cs_prefix", i32 1}
!4 = !{i32 4, !"SkipRaxSetup", i32 1}
!5 = !{!"branch_weights", i32 2000, i32 1}
!6 = !{i64 2159202722, i64 2159202531, i64 2159202583, i64 2159202629, i64 2159202657}
!7 = !{i64 2159202796, i64 2159202825, i64 2159202871, i64 2159202929, i64 2159202983, i64 2159203037, i64 2159203092, i64 2159203123}
!8 = !{!"auto-init"}
